target datalayout = "e-m:e-p270:32:32-p271:32:32-p272:64:64-i64:64-i128:128-f80:128-n8:16:32:64-S128"
target triple = "x86_64-pc-linux-gnu"

@refstats_node_id_to_parent_node_id_hash = internal global ptr null, align 8
@refstats_node_id_to_uri_hash = internal global ptr null, align 8
@st_node_requests_by_referer = internal global i32 -1, align 4
@refstats_uri_to_node_id_hash = internal global ptr null, align 8

; Function Attrs: null_pointer_is_valid sspstrong uwtable
define internal i32 @http_seq_stats_tick_referer(ptr noundef %0, ptr noundef %1) #0 {
  %3 = alloca ptr, align 8
  %4 = alloca ptr, align 8
  %5 = alloca i32, align 4
  %6 = alloca ptr, align 8
  %7 = alloca i32, align 4
  %8 = alloca ptr, align 8
  %9 = alloca i32, align 4
  %10 = alloca ptr, align 8
  %11 = alloca ptr, align 8
  store ptr %0, ptr %3, align 8
  store ptr %1, ptr %4, align 8
  call void @llvm.lifetime.start.p0(i64 4, ptr %5) #19
  %12 = load i32, ptr @st_node_requests_by_referer, align 4
  store i32 %12, ptr %5, align 4
  call void @llvm.lifetime.start.p0(i64 8, ptr %6) #19
  %13 = load i32, ptr @st_node_requests_by_referer, align 4
  %14 = sext i32 %13 to i64
  %15 = inttoptr i64 %14 to ptr
  store ptr %15, ptr %6, align 8
  call void @llvm.lifetime.start.p0(i64 4, ptr %7) #19
  call void @llvm.lifetime.start.p0(i64 8, ptr %8) #19
  call void @llvm.lifetime.start.p0(i64 4, ptr %9) #19
  call void @llvm.lifetime.start.p0(i64 8, ptr %10) #19
  call void @llvm.lifetime.start.p0(i64 8, ptr %11) #19
  %16 = load ptr, ptr @refstats_uri_to_node_id_hash, align 8
  %17 = load ptr, ptr %4, align 8
  %18 = call zeroext i1 @wmem_map_lookup_extended(ptr noundef %16, ptr noundef %17, ptr noundef null, ptr noundef %8)
  br i1 %18, label %43, label %19

19:                                               ; preds = %2
  %20 = load ptr, ptr %3, align 8
  %21 = load ptr, ptr %4, align 8
  %22 = load i32, ptr %5, align 4
  %23 = call i32 @stats_tree_manip_node_int(i32 noundef 0, ptr noundef %20, ptr noundef %21, i32 noundef %22, i1 noundef zeroext true, i32 noundef 1)
  store i32 %23, ptr %7, align 4
  %24 = load i32, ptr %7, align 4
  %25 = sext i32 %24 to i64
  %26 = inttoptr i64 %25 to ptr
  store ptr %26, ptr %8, align 8
  %27 = load ptr, ptr %6, align 8
  store ptr %27, ptr %10, align 8
  %28 = call ptr @wmem_file_scope()
  %29 = load ptr, ptr %4, align 8
  %30 = call noalias ptr @wmem_strdup(ptr noundef %28, ptr noundef %29)
  store ptr %30, ptr %11, align 8
  %31 = load ptr, ptr @refstats_uri_to_node_id_hash, align 8
  %32 = load ptr, ptr %11, align 8
  %33 = load ptr, ptr %8, align 8
  %34 = call ptr @wmem_map_insert(ptr noundef %31, ptr noundef %32, ptr noundef %33)
  %35 = load ptr, ptr @refstats_node_id_to_uri_hash, align 8
  %36 = load ptr, ptr %8, align 8
  %37 = load ptr, ptr %11, align 8
  %38 = call ptr @wmem_map_insert(ptr noundef %35, ptr noundef %36, ptr noundef %37)
  %39 = load ptr, ptr @refstats_node_id_to_parent_node_id_hash, align 8
  %40 = load ptr, ptr %8, align 8
  %41 = load ptr, ptr %10, align 8
  %42 = call ptr @wmem_map_insert(ptr noundef %39, ptr noundef %40, ptr noundef %41)
  br label %54

43:                                               ; preds = %2
  %44 = load ptr, ptr @refstats_node_id_to_parent_node_id_hash, align 8
  %45 = load ptr, ptr %8, align 8
  %46 = call ptr @wmem_map_lookup(ptr noundef %44, ptr noundef %45)
  store ptr %46, ptr %10, align 8
  %47 = load ptr, ptr %10, align 8
  %48 = ptrtoint ptr %47 to i64
  %49 = trunc i64 %48 to i32
  store i32 %49, ptr %9, align 4
  %50 = load ptr, ptr %3, align 8
  %51 = load ptr, ptr %4, align 8
  %52 = load i32, ptr %9, align 4
  %53 = call i32 @stats_tree_manip_node_int(i32 noundef 0, ptr noundef %50, ptr noundef %51, i32 noundef %52, i1 noundef zeroext true, i32 noundef 1)
  store i32 %53, ptr %7, align 4
  br label %54

54:                                               ; preds = %43, %19
  %55 = load i32, ptr %7, align 4
  call void @llvm.lifetime.end.p0(i64 8, ptr %11) #19
  call void @llvm.lifetime.end.p0(i64 8, ptr %10) #19
  call void @llvm.lifetime.end.p0(i64 4, ptr %9) #19
  call void @llvm.lifetime.end.p0(i64 8, ptr %8) #19
  call void @llvm.lifetime.end.p0(i64 4, ptr %7) #19
  call void @llvm.lifetime.end.p0(i64 8, ptr %6) #19
  call void @llvm.lifetime.end.p0(i64 4, ptr %5) #19
  ret i32 %55
}