; Function Attrs: null_pointer_is_valid sspstrong uwtable
define internal fastcc i32 @http_seq_stats_tick_referer(ptr noundef %0, ptr noundef %1) unnamed_addr #0 {
  %3 = alloca ptr, align 8
  %4 = load i32, ptr @st_node_requests_by_referer, align 4
  call void @llvm.lifetime.start.p0(i64 8, ptr nonnull %3) #21
  %5 = load ptr, ptr @refstats_uri_to_node_id_hash, align 8
  %6 = call zeroext i1 @wmem_map_lookup_extended(ptr noundef %5, ptr noundef %1, ptr noundef null, ptr noundef nonnull %3)
  br i1 %6, label %24, label %7

7:                                                ; preds = %2
  %8 = sext i32 %4 to i64
  %9 = inttoptr i64 %8 to ptr
  %10 = call i32 @stats_tree_manip_node_int(i32 noundef 0, ptr noundef %0, ptr noundef %1, i32 noundef %4, i1 noundef zeroext true, i32 noundef 1)
  %11 = sext i32 %10 to i64
  %12 = inttoptr i64 %11 to ptr
  store ptr %12, ptr %3, align 8
  %13 = call ptr @wmem_file_scope()
  %14 = call noalias ptr @wmem_strdup(ptr noundef %13, ptr noundef %1)
  %15 = load ptr, ptr @refstats_uri_to_node_id_hash, align 8
  %16 = load ptr, ptr %3, align 8
  %17 = call ptr @wmem_map_insert(ptr noundef %15, ptr noundef %14, ptr noundef %16)
  %18 = load ptr, ptr @refstats_node_id_to_uri_hash, align 8
  %19 = load ptr, ptr %3, align 8
  %20 = call ptr @wmem_map_insert(ptr noundef %18, ptr noundef %19, ptr noundef %14)
  %21 = load ptr, ptr @refstats_node_id_to_parent_node_id_hash, align 8
  %22 = load ptr, ptr %3, align 8
  %23 = call ptr @wmem_map_insert(ptr noundef %21, ptr noundef %22, ptr noundef %9)
  br label %31

24:                                               ; preds = %2
  %25 = load ptr, ptr @refstats_node_id_to_parent_node_id_hash, align 8
  %26 = load ptr, ptr %3, align 8
  %27 = call ptr @wmem_map_lookup(ptr noundef %25, ptr noundef %26)
  %28 = ptrtoint ptr %27 to i64
  %29 = trunc i64 %28 to i32
  %30 = call i32 @stats_tree_manip_node_int(i32 noundef 0, ptr noundef %0, ptr noundef %1, i32 noundef %29, i1 noundef zeroext true, i32 noundef 1)
  br label %31

31:                                               ; preds = %24, %7
  %.0 = phi i32 [ %30, %24 ], [ %10, %7 ]
  call void @llvm.lifetime.end.p0(i64 8, ptr nonnull %3) #21
  ret i32 %.0
}